Certificate:
    Data:
        Version: 1 (0x0)
        Serial Number: 16607322171618299402 (0xe6790f8695c70e0a)
    Signature Algorithm: sha1WithRSAEncryption
        Issuer: C=jp, ST=devtest, L=devtest, O=devtest, OU=devtest, CN=localhost
        Validity
            Not Before: Dec  3 06:40:37 2014 GMT
            Not After : Nov  9 06:40:37 2114 GMT
        Subject: C=jp, ST=devtest, L=devtest, O=devtest, OU=devtest, CN=localhost
        Subject Public Key Info:
            Public Key Algorithm: rsaEncryption
                Public-Key: (2048 bit)
                Modulus:
                    00:b7:98:46:82:32:0a:10:99:1e:7c:72:7c:06:5b:
                    8d:61:59:08:3d:7f:85:4f:dc:f4:c5:ff:39:06:42:
                    a2:7b:b3:d3:74:aa:66:9a:52:71:94:24:0d:5a:3d:
                    d1:03:7e:d2:6b:60:21:fe:d5:c1:7b:51:b4:24:4c:
                    a1:ac:5f:4d:f0:2e:5f:4c:e0:f7:77:71:ac:ff:06:
                    fb:35:e0:28:a8:61:e0:ba:b4:36:10:d7:16:48:18:
                    e3:6a:cd:58:2c:53:57:d4:95:92:f3:cf:d3:dc:1d:
                    1e:6d:c3:46:ef:95:33:8b:d1:87:52:71:c0:25:0e:
                    f9:36:10:f2:d3:46:7c:e6:ea:ac:f9:0b:8a:3b:a9:
                    e6:1a:48:27:f9:94:7a:0b:e2:e3:11:38:86:23:f3:
                    7a:39:4e:9e:03:99:ae:93:92:b5:8b:7e:a3:5d:a4:
                    6b:33:55:76:6a:24:c0:47:7e:e4:4b:c8:09:70:4d:
                    fc:4d:e7:be:1f:c0:36:9f:c5:35:5a:74:5d:6c:13:
                    d4:66:c6:61:c5:a7:b9:b8:3f:d4:26:f7:38:46:ad:
                    1b:7f:4e:54:f4:6d:07:56:a7:80:99:9e:33:e9:de:
                    0e:89:ed:b1:2e:8a:45:62:f2:ba:c4:60:92:6f:5c:
                    30:25:67:e8:86:59:21:22:d5:d9:ea:e1:1f:c0:36:
                    70:85
                Exponent: 65537 (0x10001)
    Signature Algorithm: sha1WithRSAEncryption
         48:5a:00:e5:80:4f:8a:bf:1e:53:93:10:5f:2e:ad:e9:fc:ea:
         68:85:f0:ab:ac:75:cc:ef:c9:3b:a9:d5:80:fc:a2:a3:18:fb:
         c9:95:cd:e9:5b:2b:ba:3b:4e:82:c6:aa:26:cf:49:ce:c7:4e:
         f2:d9:03:cc:56:cb:1a:72:98:d3:90:ab:eb:12:03:ad:a4:26:
         ac:ef:8c:3c:6d:47:54:8e:07:4b:d9:36:e0:bf:f0:88:bd:8b:
         14:33:e0:a3:89:2a:fc:5d:f3:fd:0e:ab:94:59:66:29:3c:b9:
         d6:fe:58:ad:ce:f0:84:84:77:eb:7c:39:af:35:a1:0b:07:8b:
         eb:19:88:39:0f:2c:6e:76:76:f1:9e:71:64:4b:3c:9a:30:11:
         a2:89:8a:a4:6e:c1:8f:82:96:70:a1:08:b7:8f:64:1a:fd:5a:
         d7:61:d8:27:6e:9d:33:fa:86:6a:9d:4b:6c:01:95:59:ef:8d:
         68:8c:a4:6b:1a:25:c9:ac:a2:ce:c8:a9:6c:d8:25:30:00:e7:
         f7:81:6c:36:e4:98:63:3f:6c:ee:32:84:11:e1:c0:ed:c1:72:
         e4:dc:ca:e5:de:06:e8:62:6b:96:9f:ec:bd:f5:ed:d8:18:ce:
         14:df:34:09:08:e9:1d:48:c5:eb:70:86:d3:be:75:98:95:af:
         f1:d2:e3:f5
-----BEGIN CERTIFICATE-----
MIIDUDCCAjgCCQDmeQ+GlccOCjANBgkqhkiG9w0BAQUFADBpMQswCQYDVQQGEwJq
cDEQMA4GA1UECAwHZGV2dGVzdDEQMA4GA1UEBwwHZGV2dGVzdDEQMA4GA1UECgwH
ZGV2dGVzdDEQMA4GA1UECwwHZGV2dGVzdDESMBAGA1UEAwwJbG9jYWxob3N0MCAX
DTE0MTIwMzA2NDAzN1oYDzIxMTQxMTA5MDY0MDM3WjBpMQswCQYDVQQGEwJqcDEQ
MA4GA1UECAwHZGV2dGVzdDEQMA4GA1UEBwwHZGV2dGVzdDEQMA4GA1UECgwHZGV2
dGVzdDEQMA4GA1UECwwHZGV2dGVzdDESMBAGA1UEAwwJbG9jYWxob3N0MIIBIjAN
BgkqhkiG9w0BAQEFAAOCAQ8AMIIBCgKCAQEAt5hGgjIKEJkefHJ8BluNYVkIPX+F
T9z0xf85BkKie7PTdKpmmlJxlCQNWj3RA37Sa2Ah/tXBe1G0JEyhrF9N8C5fTOD3
d3Gs/wb7NeAoqGHgurQ2ENcWSBjjas1YLFNX1JWS88/T3B0ebcNG75Uzi9GHUnHA
JQ75NhDy00Z85uqs+QuKO6nmGkgn+ZR6C+LjETiGI/N6OU6eA5muk5K1i36jXaRr
M1V2aiTAR37kS8gJcE38Tee+H8A2n8U1WnRdbBPUZsZhxae5uD/UJvc4Rq0bf05U
9G0HVqeAmZ4z6d4Oie2xLopFYvK6xGCSb1wwJWfohlkhItXZ6uEfwDZwhQIDAQAB
MA0GCSqGSIb3DQEBBQUAA4IBAQBIWgDlgE+Kvx5TkxBfLq3p/OpohfCrrHXM78k7
qdWA/KKjGPvJlc3pWyu6O06Cxqomz0nOx07y2QPMVssacpjTkKvrEgOtpCas74w8
bUdUjgdL2Tbgv/CIvYsUM+CjiSr8XfP9DquUWWYpPLnW/litzvCEhHfrfDmvNaEL
B4vrGYg5DyxudnbxnnFkSzyaMBGiiYqkbsGPgpZwoQi3j2Qa/VrXYdgnbp0z+oZq
nUtsAZVZ741ojKRrGiXJrKLOyKls2CUwAOf3gWw25JhjP2zuMoQR4cDtwXLk3Mrl
3gboYmuWn+y99e3YGM4U3zQJCOkdSMXrcIbTvnWYla/x0uP1
-----END CERTIFICATE-----
